target datalayout = "e-m:e-p270:32:32-p271:32:32-p272:64:64-i64:64-i128:128-f80:128-n8:16:32:64-S128"
target triple = "x86_64-pc-linux-gnu"

; Function Attrs: nounwind uwtable
define i32 @daemonize_all_return() #0 {
  %1 = alloca i32, align 4
  %2 = call i32 @fork() #10
  store i32 %2, ptr %1, align 4
  %3 = load i32, ptr %1, align 4
  %4 = icmp eq i32 0, %3
  br i1 %4, label %5, label %7

5:                                                ; preds = %0
  %6 = call i32 @setsid() #10
  br label %7

7:                                                ; preds = %5, %0
  %8 = load i32, ptr %1, align 4
  ret i32 %8
}

; Function Attrs: nounwind uwtable
define i32 @daemonize() #0 {
  %1 = alloca i32, align 4
  %2 = alloca i32, align 4
  %3 = alloca i32, align 4
  store i32 0, ptr %2, align 4
  %4 = call i32 @close_std_descriptors()
  store i32 %4, ptr %2, align 4
  %5 = load i32, ptr %2, align 4
  %6 = icmp ne i32 %5, 0
  br i1 %6, label %7, label %9

7:                                                ; preds = %0
  %8 = load i32, ptr %2, align 4
  store i32 %8, ptr %1, align 4
  br label %17

9:                                                ; preds = %0
  %10 = call i32 @daemonize_all_return()
  store i32 %10, ptr %2, align 4
  %11 = load i32, ptr %2, align 4
  store i32 %11, ptr %3, align 4
  %12 = load i32, ptr %3, align 4
  %13 = icmp sgt i32 %12, 0
  br i1 %13, label %14, label %15

14:                                               ; preds = %9
  call void @exit(i32 noundef 0) #11
  unreachable

15:                                               ; preds = %9
  %16 = load i32, ptr %3, align 4
  store i32 %16, ptr %1, align 4
  br label %17

17:                                               ; preds = %15, %7
  %18 = load i32, ptr %1, align 4
  ret i32 %18
}