; Function Attrs: nounwind uwtable
define i32 @daemonize() local_unnamed_addr #1 {
  %1 = tail call i32 @close_std_descriptors(), !range !4
  %.not = icmp eq i32 %1, 0
  br i1 %.not, label %2, label %8

2:                                                ; preds = %0
  %3 = tail call i32 @fork() #18
  %4 = icmp eq i32 %3, 0
  br i1 %4, label %daemonize_all_return.exit.thread, label %daemonize_all_return.exit

daemonize_all_return.exit.thread:                 ; preds = %2
  %5 = tail call i32 @setsid() #18
  br label %8

daemonize_all_return.exit:                        ; preds = %2
  %6 = icmp sgt i32 %3, 0
  br i1 %6, label %7, label %8

7:                                                ; preds = %daemonize_all_return.exit
  tail call void @exit(i32 noundef 0) #23
  unreachable

8:                                                ; preds = %daemonize_all_return.exit.thread, %daemonize_all_return.exit, %0
  %.0 = phi i32 [ -1, %0 ], [ %3, %daemonize_all_return.exit ], [ 0, %daemonize_all_return.exit.thread ]
  ret i32 %.0
}